; Function Attrs: nounwind uwtable
define dso_local noundef ptr @list_make5_impl(i32 noundef %0, ptr %1, ptr %2, ptr %3, ptr %4, ptr %5) local_unnamed_addr #0 {
  %7 = tail call ptr @palloc(i64 noundef 64) #9
  store i32 %0, ptr %7, align 8
  %8 = getelementptr inbounds nuw i8, ptr %7, i64 4
  store i32 5, ptr %8, align 4
  %9 = getelementptr inbounds nuw i8, ptr %7, i64 8
  store i32 5, ptr %9, align 8
  %10 = getelementptr inbounds nuw i8, ptr %7, i64 24
  %11 = getelementptr inbounds nuw i8, ptr %7, i64 16
  store ptr %10, ptr %11, align 8
  store ptr %1, ptr %10, align 8
  %12 = getelementptr inbounds nuw i8, ptr %7, i64 32
  store ptr %2, ptr %12, align 8
  %13 = getelementptr inbounds nuw i8, ptr %7, i64 40
  store ptr %3, ptr %13, align 8
  %14 = getelementptr inbounds nuw i8, ptr %7, i64 48
  store ptr %4, ptr %14, align 8
  %15 = getelementptr inbounds nuw i8, ptr %7, i64 56
  store ptr %5, ptr %15, align 8
  ret ptr %7
}